; Function Attrs: mustprogress uwtable
define hidden void @_ZN3api7context17set_interruptableC2ERS0_R13event_handler(ptr noundef nonnull align 8 captures(none) dereferenceable(8) initializes((0, 8)) %0, ptr noundef nonnull align 8 dereferenceable(3056) %1, ptr noundef nonnull align 8 dereferenceable(12) %2) unnamed_addr #3 align 2 personality ptr @__gxx_personality_v0 {
  store ptr %1, ptr %0, align 8, !tbaa !10
  %4 = getelementptr inbounds nuw i8, ptr %1, i64 256
  %5 = tail call noundef i32 @pthread_mutex_lock(ptr noundef nonnull align 8 dereferenceable(40) %4) #28
  %.not.i.i = icmp eq i32 %5, 0
  br i1 %.not.i.i, label %_ZNSt10lock_guardISt5mutexEC2ERS0_.exit, label %6

6:                                                ; preds = %3
  tail call void @_ZSt20__throw_system_errori(i32 noundef %5) #29
  unreachable

_ZNSt10lock_guardISt5mutexEC2ERS0_.exit:          ; preds = %3
  %7 = load ptr, ptr %0, align 8, !tbaa !438
  %8 = getelementptr inbounds nuw i8, ptr %7, i64 1624
  %9 = load ptr, ptr %8, align 8, !tbaa !241
  %10 = icmp eq ptr %9, null
  br i1 %10, label %17, label %11

11:                                               ; preds = %_ZNSt10lock_guardISt5mutexEC2ERS0_.exit
  %12 = getelementptr inbounds i8, ptr %9, i64 -4
  %13 = load i32, ptr %12, align 4, !tbaa !19
  %14 = getelementptr inbounds i8, ptr %9, i64 -8
  %15 = load i32, ptr %14, align 4, !tbaa !19
  %16 = icmp eq i32 %13, %15
  br i1 %16, label %17, label %18

17:                                               ; preds = %11, %_ZNSt10lock_guardISt5mutexEC2ERS0_.exit
  invoke void @_ZN6vectorIP13event_handlerLb0EjE13expand_vectorEv(ptr noundef nonnull align 8 dereferenceable(8) %8)
          to label %.noexc unwind label %26

.noexc:                                           ; preds = %17
  %.pre.i = load ptr, ptr %8, align 8, !tbaa !241
  %.phi.trans.insert.i = getelementptr inbounds i8, ptr %.pre.i, i64 -4
  %.pre2.i = load i32, ptr %.phi.trans.insert.i, align 4, !tbaa !19
  br label %18

18:                                               ; preds = %.noexc, %11
  %19 = phi i32 [ %.pre2.i, %.noexc ], [ %13, %11 ]
  %20 = phi ptr [ %.pre.i, %.noexc ], [ %9, %11 ]
  %21 = getelementptr inbounds i8, ptr %20, i64 -4
  %22 = zext i32 %19 to i64
  %23 = getelementptr inbounds nuw ptr, ptr %20, i64 %22
  store ptr %2, ptr %23, align 8, !tbaa !440
  %24 = add i32 %19, 1
  store i32 %24, ptr %21, align 4, !tbaa !19
  %25 = tail call noundef i32 @pthread_mutex_unlock(ptr noundef nonnull align 8 dereferenceable(40) %4) #28
  ret void

26:                                               ; preds = %17
  %27 = landingpad { ptr, i32 }
          cleanup
  %28 = tail call noundef i32 @pthread_mutex_unlock(ptr noundef nonnull align 8 dereferenceable(40) %4) #28
  resume { ptr, i32 } %27
}